; Function Attrs: nounwind uwtable
define internal void @_raster_polarity_callback(ptr noundef %0, ptr noundef %1) #0 {
  %3 = load ptr, ptr getelementptr inbounds nuw (i8, ptr @darktable, i64 104), align 8, !tbaa !33
  %4 = getelementptr inbounds nuw i8, ptr %3, i64 96
  %5 = load i32, ptr %4, align 8, !tbaa !66
  %.not = icmp eq i32 %5, 0
  br i1 %.not, label %6, label %14

6:                                                ; preds = %2
  %7 = getelementptr inbounds nuw i8, ptr %1, i64 760
  %8 = load ptr, ptr %7, align 8, !tbaa !71
  %9 = tail call i32 @gtk_toggle_button_get_active(ptr noundef %0) #18
  %10 = getelementptr inbounds nuw i8, ptr %8, i64 416
  store i32 %9, ptr %10, align 4, !tbaa !193
  %11 = load ptr, ptr getelementptr inbounds nuw (i8, ptr @darktable, i64 64), align 8, !tbaa !119
  tail call void @dt_dev_add_history_item(ptr noundef %11, ptr noundef %1, i32 noundef 1) #18
  %12 = tail call i64 @gtk_widget_get_type() #19
  %13 = tail call ptr @g_type_check_instance_cast(ptr noundef %0, i64 noundef %12) #18
  tail call void @dt_control_queue_redraw_widget(ptr noundef %13) #18
  br label %14

14:                                               ; preds = %2, %6
  ret void
}